target datalayout = "e-m:e-p270:32:32-p271:32:32-p272:64:64-i64:64-i128:128-f80:128-n8:16:32:64-S128"
target triple = "x86_64-pc-linux-gnu"

%struct.tvbuff = type { ptr, ptr, i8, i32, ptr, ptr, i32, i32, i32, i32 }

@.str = private unnamed_addr constant [29 x i8] c"%s:%u: failed assertion \22%s\22\00", align 1
@.str.1 = private unnamed_addr constant [14 x i8] c"epan/tvbuff.c\00", align 1
@.str.5 = private unnamed_addr constant [24 x i8] c"tvb && tvb->initialized\00", align 1

; Function Attrs: null_pointer_is_valid sspstrong uwtable
define i32 @tvb_reported_length(ptr noundef %0) #0 {
  %2 = alloca ptr, align 8
  store ptr %0, ptr %2, align 8
  %3 = load ptr, ptr %2, align 8
  %4 = icmp ne ptr %3, null
  br i1 %4, label %5, label %11

5:                                                ; preds = %1
  %6 = load ptr, ptr %2, align 8
  %7 = getelementptr inbounds nuw %struct.tvbuff, ptr %6, i32 0, i32 2
  %8 = load i8, ptr %7, align 8, !range !9, !noundef !10
  %9 = trunc i8 %8 to i1
  br i1 %9, label %10, label %11

10:                                               ; preds = %5
  br label %13

11:                                               ; preds = %5, %1
  call void (ptr, ...) @proto_report_dissector_bug(ptr noundef @.str, ptr noundef @.str.1, i32 noundef 746, ptr noundef @.str.5) #18
  unreachable

12:                                               ; No predecessors!
  br label %13

13:                                               ; preds = %12, %10
  %14 = load ptr, ptr %2, align 8
  %15 = getelementptr inbounds nuw %struct.tvbuff, ptr %14, i32 0, i32 7
  %16 = load i32, ptr %15, align 4
  ret i32 %16
}

; Function Attrs: null_pointer_is_valid sspstrong uwtable
define ptr @tvb_get_bits_array(ptr noundef %0, ptr noundef %1, i32 noundef %2, i64 noundef %3, ptr noundef %4, i32 noundef %5) #0 {
  %7 = alloca ptr, align 8
  %8 = alloca ptr, align 8
  %9 = alloca i32, align 4
  %10 = alloca i64, align 8
  %11 = alloca ptr, align 8
  %12 = alloca i32, align 4
  %13 = alloca ptr, align 8
  store ptr %0, ptr %7, align 8
  store ptr %1, ptr %8, align 8
  store i32 %2, ptr %9, align 4
  store i64 %3, ptr %10, align 8
  store ptr %4, ptr %11, align 8
  store i32 %5, ptr %12, align 4
  call void @llvm.lifetime.start.p0(i64 8, ptr %13) #16
  %14 = load i32, ptr %12, align 4
  %15 = and i32 %14, -2147483648
  %16 = icmp ne i32 %15, 0
  br i1 %16, label %17, label %23

17:                                               ; preds = %6
  %18 = load ptr, ptr %8, align 8
  %19 = load i32, ptr %9, align 4
  %20 = load i64, ptr %10, align 8
  %21 = trunc i64 %20 to i32
  %22 = call ptr @tvb_new_octet_right_aligned(ptr noundef %18, i32 noundef %19, i32 noundef %21)
  store ptr %22, ptr %13, align 8
  br label %29

23:                                               ; preds = %6
  %24 = load ptr, ptr %8, align 8
  %25 = load i32, ptr %9, align 4
  %26 = load i64, ptr %10, align 8
  %27 = trunc i64 %26 to i32
  %28 = call ptr @tvb_new_octet_aligned(ptr noundef %24, i32 noundef %25, i32 noundef %27)
  store ptr %28, ptr %13, align 8
  br label %29

29:                                               ; preds = %23, %17
  %30 = load ptr, ptr %13, align 8
  %31 = call i32 @tvb_reported_length(ptr noundef %30)
  %32 = zext i32 %31 to i64
  %33 = load ptr, ptr %11, align 8
  store i64 %32, ptr %33, align 8
  %34 = load ptr, ptr %7, align 8
  %35 = load ptr, ptr %13, align 8
  %36 = load ptr, ptr %11, align 8
  %37 = load i64, ptr %36, align 8
  %38 = call ptr @tvb_memdup(ptr noundef %34, ptr noundef %35, i32 noundef 0, i64 noundef %37)
  call void @llvm.lifetime.end.p0(i64 8, ptr %13) #16
  ret ptr %38
}