; Function Attrs: null_pointer_is_valid sspstrong uwtable
define ptr @tvb_get_bits_array(ptr noundef %0, ptr noundef %1, i32 noundef %2, i64 noundef %3, ptr noundef writeonly captures(none) %4, i32 noundef %5) local_unnamed_addr #0 {
  %.not = icmp sgt i32 %5, -1
  %7 = trunc i64 %3 to i32
  br i1 %.not, label %10, label %8

8:                                                ; preds = %6
  %9 = tail call ptr @tvb_new_octet_right_aligned(ptr noundef %1, i32 noundef %2, i32 noundef %7)
  br label %12

10:                                               ; preds = %6
  %11 = tail call ptr @tvb_new_octet_aligned(ptr noundef %1, i32 noundef %2, i32 noundef %7)
  br label %12

12:                                               ; preds = %10, %8
  %.0 = phi ptr [ %9, %8 ], [ %11, %10 ]
  %.not.i = icmp eq ptr %.0, null
  br i1 %.not.i, label %17, label %13

13:                                               ; preds = %12
  %14 = getelementptr inbounds nuw i8, ptr %.0, i64 16
  %15 = load i8, ptr %14, align 8, !range !9, !noundef !10
  %16 = trunc nuw i8 %15 to i1
  br i1 %16, label %tvb_reported_length.exit, label %17

17:                                               ; preds = %13, %12
  tail call void (ptr, ...) @proto_report_dissector_bug(ptr noundef nonnull @.str, ptr noundef nonnull @.str.1, i32 noundef 746, ptr noundef nonnull @.str.5) #18
  unreachable

tvb_reported_length.exit:                         ; preds = %13
  %18 = getelementptr inbounds nuw i8, ptr %.0, i64 44
  %19 = load i32, ptr %18, align 4
  %20 = zext i32 %19 to i64
  store i64 %20, ptr %4, align 8
  %21 = tail call ptr @tvb_memdup(ptr noundef %0, ptr noundef nonnull %.0, i32 noundef 0, i64 noundef %20)
  ret ptr %21
}